(dp0
S'e'
p1
ccopy_reg
_reconstructor
p2
(cpython_spreadsheet.sheet
Sheet
p3
c__builtin__
object
p4
Ntp5
Rp6
(dp7
S'table'
p8
cnumpy.core.multiarray
_reconstruct
p9
(cnumpy
ndarray
p10
(I0
tp11
S'b'
p12
tp13
Rp14
(I1
(I1
I1
tp15
cnumpy
dtype
p16
(S'O8'
p17
I0
I1
tp18
Rp19
(I3
S'|'
p20
NNNI-1
I-1
I63
tp21
bI00
(lp22
g2
(cpython_spreadsheet.sheet
Cell
p23
g4
Ntp24
Rp25
(dp26
S'dtype'
p27
S'none'
p28
sS'v'
p29
Nsbatp30
bsbsS'd'
p31
g2
(g3
g4
Ntp32
Rp33
(dp34
g8
g9
(g10
(I0
tp35
g12
tp36
Rp37
(I1
(I3
I3
tp38
g19
I00
(lp39
g2
(g23
g4
Ntp40
Rp41
(dp42
g27
S'int'
p43
sg29
I1
sbag2
(g23
g4
Ntp44
Rp45
(dp46
g27
S'int'
p47
sg29
I2
sbag2
(g23
g4
Ntp48
Rp49
(dp50
g27
g47
sg29
I3
sbag2
(g23
g4
Ntp51
Rp52
(dp53
g27
g28
sg29
Nsbag2
(g23
g4
Ntp54
Rp55
(dp56
g27
S'formula'
p57
sg29
S'=cell(0,[0,1,2])'
p58
sbag2
(g23
g4
Ntp59
Rp60
(dp61
g27
g28
sg29
Nsbag2
(g23
g4
Ntp62
Rp63
(dp64
g27
g28
sg29
Nsbag2
(g23
g4
Ntp65
Rp66
(dp67
g27
g28
sg29
Nsbag2
(g23
g4
Ntp68
Rp69
(dp70
g27
g28
sg29
Nsbatp71
bsbsS'f'
p72
g2
(cpython_spreadsheet.service
User
p73
g4
Ntp74
Rp75
(dp76
S'sheets'
p77
(dp78
S'sheet0'
p79
g2
(g3
g4
Ntp80
Rp81
(dp82
g8
g9
(g10
(I0
tp83
g12
tp84
Rp85
(I1
(I8
I6
tp86
g16
(S'O8'
p87
I0
I1
tp88
Rp89
(I3
S'|'
p90
NNNI-1
I-1
I63
tp91
bI00
(lp92
g2
(g23
g4
Ntp93
Rp94
(dp95
g27
S'int'
p96
sg29
I1
sbag2
(g23
g4
Ntp97
Rp98
(dp99
g27
S'none'
p100
sg29
Nsbag2
(g23
g4
Ntp101
Rp102
(dp103
g27
S'none'
p104
sg29
Nsbag2
(g23
g4
Ntp105
Rp106
(dp107
g27
S'none'
p108
sg29
Nsbag2
(g23
g4
Ntp109
Rp110
(dp111
g27
S'none'
p112
sg29
Nsbag2
(g23
g4
Ntp113
Rp114
(dp115
g27
g112
sg29
Nsbag2
(g23
g4
Ntp116
Rp117
(dp118
g27
S'int'
p119
sg29
I2
sbag2
(g23
g4
Ntp120
Rp121
(dp122
g27
g100
sg29
Nsbag2
(g23
g4
Ntp123
Rp124
(dp125
g27
g104
sg29
Nsbag2
(g23
g4
Ntp126
Rp127
(dp128
g27
g108
sg29
Nsbag2
(g23
g4
Ntp129
Rp130
(dp131
g27
g112
sg29
Nsbag2
(g23
g4
Ntp132
Rp133
(dp134
g27
g112
sg29
Nsbag2
(g23
g4
Ntp135
Rp136
(dp137
g27
S'formula'
p138
sg29
S'=cell([0,1],0)'
p139
sbag2
(g23
g4
Ntp140
Rp141
(dp142
g27
g100
sg29
Nsbag2
(g23
g4
Ntp143
Rp144
(dp145
g27
g104
sg29
Nsbag2
(g23
g4
Ntp146
Rp147
(dp148
g27
g108
sg29
Nsbag2
(g23
g4
Ntp149
Rp150
(dp151
g27
g112
sg29
Nsbag2
(g23
g4
Ntp152
Rp153
(dp154
g27
g112
sg29
Nsbag2
(g23
g4
Ntp155
Rp156
(dp157
g27
g138
sg29
S'=cell([0,1],0).flatten()'
p158
sbag2
(g23
g4
Ntp159
Rp160
(dp161
g27
g100
sg29
Nsbag2
(g23
g4
Ntp162
Rp163
(dp164
g27
g104
sg29
Nsbag2
(g23
g4
Ntp165
Rp166
(dp167
g27
g108
sg29
Nsbag2
(g23
g4
Ntp168
Rp169
(dp170
g27
g112
sg29
Nsbag2
(g23
g4
Ntp171
Rp172
(dp173
g27
g112
sg29
Nsbag2
(g23
g4
Ntp174
Rp175
(dp176
g27
g138
sg29
S'=sum(cell([0,1],0).flatten())'
p177
sbag2
(g23
g4
Ntp178
Rp179
(dp180
g27
g100
sg29
Nsbag2
(g23
g4
Ntp181
Rp182
(dp183
g27
g104
sg29
Nsbag2
(g23
g4
Ntp184
Rp185
(dp186
g27
g108
sg29
Nsbag2
(g23
g4
Ntp187
Rp188
(dp189
g27
g112
sg29
Nsbag2
(g23
g4
Ntp190
Rp191
(dp192
g27
g112
sg29
Nsbag2
(g23
g4
Ntp193
Rp194
(dp195
g27
g108
sg29
Nsbag2
(g23
g4
Ntp196
Rp197
(dp198
g27
g108
sg29
Nsbag2
(g23
g4
Ntp199
Rp200
(dp201
g27
g108
sg29
Nsbag2
(g23
g4
Ntp202
Rp203
(dp204
g27
g108
sg29
Nsbag2
(g23
g4
Ntp205
Rp206
(dp207
g27
g112
sg29
Nsbag2
(g23
g4
Ntp208
Rp209
(dp210
g27
g112
sg29
Nsbag2
(g23
g4
Ntp211
Rp212
(dp213
g27
S'none'
p214
sg29
Nsbag2
(g23
g4
Ntp215
Rp216
(dp217
g27
g214
sg29
Nsbag2
(g23
g4
Ntp218
Rp219
(dp220
g27
g214
sg29
Nsbag2
(g23
g4
Ntp221
Rp222
(dp223
g27
g214
sg29
Nsbag2
(g23
g4
Ntp224
Rp225
(dp226
g27
g112
sg29
Nsbag2
(g23
g4
Ntp227
Rp228
(dp229
g27
g112
sg29
Nsbag2
(g23
g4
Ntp230
Rp231
(dp232
g27
S'none'
p233
sg29
Nsbag2
(g23
g4
Ntp234
Rp235
(dp236
g27
g233
sg29
Nsbag2
(g23
g4
Ntp237
Rp238
(dp239
g27
g233
sg29
Nsbag2
(g23
g4
Ntp240
Rp241
(dp242
g27
g233
sg29
Nsbag2
(g23
g4
Ntp243
Rp244
(dp245
g27
g233
sg29
Nsbag2
(g23
g4
Ntp246
Rp247
(dp248
g27
g233
sg29
Nsbatp249
bsbssbs.