(dp0
S'e'
p1
ccopy_reg
_reconstructor
p2
(cpython_spreadsheet.sheet
Sheet
p3
c__builtin__
object
p4
Ntp5
Rp6
(dp7
S'table'
p8
cnumpy.core.multiarray
_reconstruct
p9
(cnumpy
ndarray
p10
(I0
tp11
S'b'
p12
tp13
Rp14
(I1
(I1
I1
tp15
cnumpy
dtype
p16
(S'O8'
p17
I0
I1
tp18
Rp19
(I3
S'|'
p20
NNNI-1
I-1
I63
tp21
bI00
(lp22
g2
(cpython_spreadsheet.sheet
Cell
p23
g4
Ntp24
Rp25
(dp26
S'dtype'
p27
S'none'
p28
sS'v'
p29
Nsbatp30
bsbsS'd'
p31
g2
(g3
g4
Ntp32
Rp33
(dp34
g8
g9
(g10
(I0
tp35
g12
tp36
Rp37
(I1
(I5
I5
tp38
g16
(S'O8'
p39
I0
I1
tp40
Rp41
(I3
S'|'
p42
NNNI-1
I-1
I63
tp43
bI00
(lp44
g2
(g23
g4
Ntp45
Rp46
(dp47
g27
S'int'
p48
sg29
I1
sbag2
(g23
g4
Ntp49
Rp50
(dp51
g27
S'formula'
p52
sg29
S'=cell(row(),0)'
p53
sbag2
(g23
g4
Ntp54
Rp55
(dp56
g27
S'none'
p57
sg29
Nsbag2
(g23
g4
Ntp58
Rp59
(dp60
g27
S'none'
p61
sg29
Nsbag2
(g23
g4
Ntp62
Rp63
(dp64
g27
g61
sg29
Nsbag2
(g23
g4
Ntp65
Rp66
(dp67
g27
S'int'
p68
sg29
I2
sbag2
(g23
g4
Ntp69
Rp70
(dp71
g27
g52
sg29
S'=cell(row(),0)'
p72
sbag2
(g23
g4
Ntp73
Rp74
(dp75
g27
g28
sg29
Nsbag2
(g23
g4
Ntp76
Rp77
(dp78
g27
g61
sg29
Nsbag2
(g23
g4
Ntp79
Rp80
(dp81
g27
g61
sg29
Nsbag2
(g23
g4
Ntp82
Rp83
(dp84
g27
g68
sg29
I3
sbag2
(g23
g4
Ntp85
Rp86
(dp87
g27
g52
sg29
S'=cell(row(),0)'
p88
sbag2
(g23
g4
Ntp89
Rp90
(dp91
g27
g28
sg29
Nsbag2
(g23
g4
Ntp92
Rp93
(dp94
g27
g61
sg29
Nsbag2
(g23
g4
Ntp95
Rp96
(dp97
g27
g61
sg29
Nsbag2
(g23
g4
Ntp98
Rp99
(dp100
g27
g61
sg29
Nsbag2
(g23
g4
Ntp101
Rp102
(dp103
g27
S'none'
p104
sg29
Nsbag2
(g23
g4
Ntp105
Rp106
(dp107
g27
g61
sg29
Nsbag2
(g23
g4
Ntp108
Rp109
(dp110
g27
g61
sg29
Nsbag2
(g23
g4
Ntp111
Rp112
(dp113
g27
g61
sg29
Nsbag2
(g23
g4
Ntp114
Rp115
(dp116
g27
S'none'
p117
sg29
Nsbag2
(g23
g4
Ntp118
Rp119
(dp120
g27
g117
sg29
Nsbag2
(g23
g4
Ntp121
Rp122
(dp123
g27
g117
sg29
Nsbag2
(g23
g4
Ntp124
Rp125
(dp126
g27
S'none'
p127
sg29
Nsbag2
(g23
g4
Ntp128
Rp129
(dp130
g27
g127
sg29
Nsbatp131
bsbsS'f'
p132
g2
(g3
g4
Ntp133
Rp134
(dp135
g8
g9
(g10
(I0
tp136
g12
tp137
Rp138
(I1
(I1
I1
tp139
g16
(S'O8'
p140
I0
I1
tp141
Rp142
(I3
S'|'
p143
NNNI-1
I-1
I63
tp144
bI00
(lp145
g2
(g23
g4
Ntp146
Rp147
(dp148
g27
S'none'
p149
sg29
Nsbatp150
bsbs.