(dp0
S'e'
p1
ccopy_reg
_reconstructor
p2
(cpython_spreadsheet.sheet
Sheet
p3
c__builtin__
object
p4
Ntp5
Rp6
(dp7
S'table'
p8
cnumpy.core.multiarray
_reconstruct
p9
(cnumpy
ndarray
p10
(I0
tp11
S'b'
p12
tp13
Rp14
(I1
(I1
I1
tp15
cnumpy
dtype
p16
(S'O8'
p17
I0
I1
tp18
Rp19
(I3
S'|'
p20
NNNI-1
I-1
I63
tp21
bI00
(lp22
g2
(cpython_spreadsheet.sheet
Cell
p23
g4
Ntp24
Rp25
(dp26
S'dtype'
p27
S'none'
p28
sS'v'
p29
Nsbatp30
bsbsS'd'
p31
g2
(g3
g4
Ntp32
Rp33
(dp34
g8
g9
(g10
(I0
tp35
g12
tp36
Rp37
(I1
(I3
I3
tp38
g19
I00
(lp39
g2
(g23
g4
Ntp40
Rp41
(dp42
g27
S'int'
p43
sg29
I1
sbag2
(g23
g4
Ntp44
Rp45
(dp46
g27
S'int'
p47
sg29
I2
sbag2
(g23
g4
Ntp48
Rp49
(dp50
g27
g47
sg29
I3
sbag2
(g23
g4
Ntp51
Rp52
(dp53
g27
g28
sg29
Nsbag2
(g23
g4
Ntp54
Rp55
(dp56
g27
S'formula'
p57
sg29
S'=cell(0,[0,1,2])'
p58
sbag2
(g23
g4
Ntp59
Rp60
(dp61
g27
g28
sg29
Nsbag2
(g23
g4
Ntp62
Rp63
(dp64
g27
g28
sg29
Nsbag2
(g23
g4
Ntp65
Rp66
(dp67
g27
g28
sg29
Nsbag2
(g23
g4
Ntp68
Rp69
(dp70
g27
g28
sg29
Nsbatp71
bsbsS'f'
p72
g2
(cpython_spreadsheet.service
User
p73
g4
Ntp74
Rp75
(dp76
S'sheets'
p77
(dp78
S'sheet0'
p79
g2
(g3
g4
Ntp80
Rp81
(dp82
g8
g9
(g10
(I0
tp83
g12
tp84
Rp85
(I1
(I8
I6
tp86
g16
(S'O8'
p87
I0
I1
tp88
Rp89
(I3
S'|'
p90
NNNI-1
I-1
I63
tp91
bI00
(lp92
g2
(g23
g4
Ntp93
Rp94
(dp95
g27
S'int'
p96
sg29
I1
sbag2
(g23
g4
Ntp97
Rp98
(dp99
g27
S'formula'
p100
sg29
S'=cell(row(),0)**2'
p101
sbag2
(g23
g4
Ntp102
Rp103
(dp104
g27
S'none'
p105
sg29
Nsbag2
(g23
g4
Ntp106
Rp107
(dp108
g27
S'none'
p109
sg29
Nsbag2
(g23
g4
Ntp110
Rp111
(dp112
g27
S'none'
p113
sg29
Nsbag2
(g23
g4
Ntp114
Rp115
(dp116
g27
g113
sg29
Nsbag2
(g23
g4
Ntp117
Rp118
(dp119
g27
S'int'
p120
sg29
I2
sbag2
(g23
g4
Ntp121
Rp122
(dp123
g27
g100
sg29
S'=cell(row(),0)**2'
p124
sbag2
(g23
g4
Ntp125
Rp126
(dp127
g27
g105
sg29
Nsbag2
(g23
g4
Ntp128
Rp129
(dp130
g27
g109
sg29
Nsbag2
(g23
g4
Ntp131
Rp132
(dp133
g27
g113
sg29
Nsbag2
(g23
g4
Ntp134
Rp135
(dp136
g27
g113
sg29
Nsbag2
(g23
g4
Ntp137
Rp138
(dp139
g27
S'int'
p140
sg29
I3
sbag2
(g23
g4
Ntp141
Rp142
(dp143
g27
S'none'
p144
sg29
Nsbag2
(g23
g4
Ntp145
Rp146
(dp147
g27
g105
sg29
Nsbag2
(g23
g4
Ntp148
Rp149
(dp150
g27
g109
sg29
Nsbag2
(g23
g4
Ntp151
Rp152
(dp153
g27
g113
sg29
Nsbag2
(g23
g4
Ntp154
Rp155
(dp156
g27
g113
sg29
Nsbag2
(g23
g4
Ntp157
Rp158
(dp159
g27
g140
sg29
I4
sbag2
(g23
g4
Ntp160
Rp161
(dp162
g27
g144
sg29
Nsbag2
(g23
g4
Ntp163
Rp164
(dp165
g27
g105
sg29
Nsbag2
(g23
g4
Ntp166
Rp167
(dp168
g27
g109
sg29
Nsbag2
(g23
g4
Ntp169
Rp170
(dp171
g27
g113
sg29
Nsbag2
(g23
g4
Ntp172
Rp173
(dp174
g27
g113
sg29
Nsbag2
(g23
g4
Ntp175
Rp176
(dp177
g27
g144
sg29
Nsbag2
(g23
g4
Ntp178
Rp179
(dp180
g27
g144
sg29
Nsbag2
(g23
g4
Ntp181
Rp182
(dp183
g27
g105
sg29
Nsbag2
(g23
g4
Ntp184
Rp185
(dp186
g27
g109
sg29
Nsbag2
(g23
g4
Ntp187
Rp188
(dp189
g27
g113
sg29
Nsbag2
(g23
g4
Ntp190
Rp191
(dp192
g27
g113
sg29
Nsbag2
(g23
g4
Ntp193
Rp194
(dp195
g27
g109
sg29
Nsbag2
(g23
g4
Ntp196
Rp197
(dp198
g27
g109
sg29
Nsbag2
(g23
g4
Ntp199
Rp200
(dp201
g27
g109
sg29
Nsbag2
(g23
g4
Ntp202
Rp203
(dp204
g27
g109
sg29
Nsbag2
(g23
g4
Ntp205
Rp206
(dp207
g27
g113
sg29
Nsbag2
(g23
g4
Ntp208
Rp209
(dp210
g27
g113
sg29
Nsbag2
(g23
g4
Ntp211
Rp212
(dp213
g27
S'none'
p214
sg29
Nsbag2
(g23
g4
Ntp215
Rp216
(dp217
g27
g214
sg29
Nsbag2
(g23
g4
Ntp218
Rp219
(dp220
g27
g214
sg29
Nsbag2
(g23
g4
Ntp221
Rp222
(dp223
g27
g214
sg29
Nsbag2
(g23
g4
Ntp224
Rp225
(dp226
g27
g113
sg29
Nsbag2
(g23
g4
Ntp227
Rp228
(dp229
g27
g113
sg29
Nsbag2
(g23
g4
Ntp230
Rp231
(dp232
g27
S'none'
p233
sg29
Nsbag2
(g23
g4
Ntp234
Rp235
(dp236
g27
g233
sg29
Nsbag2
(g23
g4
Ntp237
Rp238
(dp239
g27
g233
sg29
Nsbag2
(g23
g4
Ntp240
Rp241
(dp242
g27
g233
sg29
Nsbag2
(g23
g4
Ntp243
Rp244
(dp245
g27
g233
sg29
Nsbag2
(g23
g4
Ntp246
Rp247
(dp248
g27
g233
sg29
Nsbatp249
bsbssbs.