(dp0
S'c'
p1
ccopy_reg
_reconstructor
p2
(cpython_spreadsheet.service
User
p3
c__builtin__
object
p4
Ntp5
Rp6
sS'e'
p7
g2
(g3
g4
Ntp8
Rp9
sS'd'
p10
g2
(g3
g4
Ntp11
Rp12
sS'f'
p13
g2
(g3
g4
Ntp14
Rp15
s.