(dp0
S'e'
p1
ccopy_reg
_reconstructor
p2
(cpython_spreadsheet.sheet
Sheet
p3
c__builtin__
object
p4
Ntp5
Rp6
(dp7
S'table'
p8
cnumpy.core.multiarray
_reconstruct
p9
(cnumpy
ndarray
p10
(I0
tp11
S'b'
p12
tp13
Rp14
(I1
(I1
I1
tp15
cnumpy
dtype
p16
(S'O8'
p17
I0
I1
tp18
Rp19
(I3
S'|'
p20
NNNI-1
I-1
I63
tp21
bI00
(lp22
g2
(cpython_spreadsheet.sheet
Cell
p23
g4
Ntp24
Rp25
(dp26
S'dtype'
p27
S'none'
p28
sS'v'
p29
Nsbatp30
bsbsS'd'
p31
g2
(g3
g4
Ntp32
Rp33
(dp34
g8
g9
(g10
(I0
tp35
g12
tp36
Rp37
(I1
(I3
I3
tp38
g19
I00
(lp39
g2
(g23
g4
Ntp40
Rp41
(dp42
g27
S'int'
p43
sg29
I1
sbag2
(g23
g4
Ntp44
Rp45
(dp46
g27
S'int'
p47
sg29
I2
sbag2
(g23
g4
Ntp48
Rp49
(dp50
g27
g47
sg29
I3
sbag2
(g23
g4
Ntp51
Rp52
(dp53
g27
g28
sg29
Nsbag2
(g23
g4
Ntp54
Rp55
(dp56
g27
S'formula'
p57
sg29
S'=cell(0,[0,1,2])'
p58
sbag2
(g23
g4
Ntp59
Rp60
(dp61
g27
g28
sg29
Nsbag2
(g23
g4
Ntp62
Rp63
(dp64
g27
g28
sg29
Nsbag2
(g23
g4
Ntp65
Rp66
(dp67
g27
g28
sg29
Nsbag2
(g23
g4
Ntp68
Rp69
(dp70
g27
g28
sg29
Nsbatp71
bsbs.