(dp0
S'e'
p1
ccopy_reg
_reconstructor
p2
(cpython_spreadsheet.sheet
Sheet
p3
c__builtin__
object
p4
Ntp5
Rp6
(dp7
S'table'
p8
cnumpy.core.multiarray
_reconstruct
p9
(cnumpy
ndarray
p10
(I0
tp11
S'b'
p12
tp13
Rp14
(I1
(I1
I1
tp15
cnumpy
dtype
p16
(S'O8'
p17
I0
I1
tp18
Rp19
(I3
S'|'
p20
NNNI-1
I-1
I63
tp21
bI00
(lp22
g2
(cpython_spreadsheet.sheet
Cell
p23
g4
Ntp24
Rp25
(dp26
S'dtype'
p27
S'none'
p28
sS'v'
p29
Nsbatp30
bsbsS'd'
p31
g2
(g3
g4
Ntp32
Rp33
(dp34
g8
g9
(g10
(I0
tp35
g12
tp36
Rp37
(I1
(I5
I5
tp38
g16
(S'O8'
p39
I0
I1
tp40
Rp41
(I3
S'|'
p42
NNNI-1
I-1
I63
tp43
bI00
(lp44
g2
(g23
g4
Ntp45
Rp46
(dp47
g27
S'int'
p48
sg29
I1
sbag2
(g23
g4
Ntp49
Rp50
(dp51
g27
S'int'
p52
sg29
I2
sbag2
(g23
g4
Ntp53
Rp54
(dp55
g27
g52
sg29
I3
sbag2
(g23
g4
Ntp56
Rp57
(dp58
g27
S'none'
p59
sg29
Nsbag2
(g23
g4
Ntp60
Rp61
(dp62
g27
g59
sg29
Nsbag2
(g23
g4
Ntp63
Rp64
(dp65
g27
g28
sg29
Nsbag2
(g23
g4
Ntp66
Rp67
(dp68
g27
S'formula'
p69
sg29
S'=cell(0,[0,1,2])'
p70
sbag2
(g23
g4
Ntp71
Rp72
(dp73
g27
g28
sg29
Nsbag2
(g23
g4
Ntp74
Rp75
(dp76
g27
g59
sg29
Nsbag2
(g23
g4
Ntp77
Rp78
(dp79
g27
g59
sg29
Nsbag2
(g23
g4
Ntp80
Rp81
(dp82
g27
g28
sg29
Nsbag2
(g23
g4
Ntp83
Rp84
(dp85
g27
S'formula'
p86
sg29
S'=range(3)'
p87
sbag2
(g23
g4
Ntp88
Rp89
(dp90
g27
g28
sg29
Nsbag2
(g23
g4
Ntp91
Rp92
(dp93
g27
g59
sg29
Nsbag2
(g23
g4
Ntp94
Rp95
(dp96
g27
g59
sg29
Nsbag2
(g23
g4
Ntp97
Rp98
(dp99
g27
g59
sg29
Nsbag2
(g23
g4
Ntp100
Rp101
(dp102
g27
S'int'
p103
sg29
I3
sbag2
(g23
g4
Ntp104
Rp105
(dp106
g27
g59
sg29
Nsbag2
(g23
g4
Ntp107
Rp108
(dp109
g27
g59
sg29
Nsbag2
(g23
g4
Ntp110
Rp111
(dp112
g27
g59
sg29
Nsbag2
(g23
g4
Ntp113
Rp114
(dp115
g27
S'str'
p116
sg29
S'None'
p117
sbag2
(g23
g4
Ntp118
Rp119
(dp120
g27
S'formula'
p121
sg29
S'=[x**3 for x in range(4)]'
p122
sbag2
(g23
g4
Ntp123
Rp124
(dp125
g27
S'int'
p126
sg29
I6
sbag2
(g23
g4
Ntp127
Rp128
(dp129
g27
S'none'
p130
sg29
Nsbag2
(g23
g4
Ntp131
Rp132
(dp133
g27
g130
sg29
Nsbatp134
bsbs.