(dp0
S'e'
p1
ccopy_reg
_reconstructor
p2
(cpython_spreadsheet.sheet
Sheet
p3
c__builtin__
object
p4
Ntp5
Rp6
(dp7
S'table'
p8
cnumpy.core.multiarray
_reconstruct
p9
(cnumpy
ndarray
p10
(I0
tp11
S'b'
p12
tp13
Rp14
(I1
(I1
I1
tp15
cnumpy
dtype
p16
(S'O8'
p17
I0
I1
tp18
Rp19
(I3
S'|'
p20
NNNI-1
I-1
I63
tp21
bI00
(lp22
g2
(cpython_spreadsheet.sheet
Cell
p23
g4
Ntp24
Rp25
(dp26
S'dtype'
p27
S'none'
p28
sS'v'
p29
Nsbatp30
bsbsS'd'
p31
g2
(g3
g4
Ntp32
Rp33
(dp34
g8
g9
(g10
(I0
tp35
g12
tp36
Rp37
(I1
(I3
I3
tp38
g19
I00
(lp39
g2
(g23
g4
Ntp40
Rp41
(dp42
g27
S'int'
p43
sg29
I1
sbag2
(g23
g4
Ntp44
Rp45
(dp46
g27
S'int'
p47
sg29
I2
sbag2
(g23
g4
Ntp48
Rp49
(dp50
g27
g47
sg29
I3
sbag2
(g23
g4
Ntp51
Rp52
(dp53
g27
g28
sg29
Nsbag2
(g23
g4
Ntp54
Rp55
(dp56
g27
S'formula'
p57
sg29
S'=cell(0,[0,1,2])'
p58
sbag2
(g23
g4
Ntp59
Rp60
(dp61
g27
g28
sg29
Nsbag2
(g23
g4
Ntp62
Rp63
(dp64
g27
g28
sg29
Nsbag2
(g23
g4
Ntp65
Rp66
(dp67
g27
g28
sg29
Nsbag2
(g23
g4
Ntp68
Rp69
(dp70
g27
g28
sg29
Nsbatp71
bsbsS'f'
p72
g2
(cpython_spreadsheet.service
User
p73
g4
Ntp74
Rp75
(dp76
S'sheets'
p77
(dp78
S'sheet0'
p79
g2
(g3
g4
Ntp80
Rp81
(dp82
g8
g9
(g10
(I0
tp83
g12
tp84
Rp85
(I1
(I8
I6
tp86
g16
(S'O8'
p87
I0
I1
tp88
Rp89
(I3
S'|'
p90
NNNI-1
I-1
I63
tp91
bI00
(lp92
g2
(g23
g4
Ntp93
Rp94
(dp95
g27
S'int'
p96
sg29
I1
sbag2
(g23
g4
Ntp97
Rp98
(dp99
g27
S'formula'
p100
sg29
S'=[row(),col()]'
p101
sbag2
(g23
g4
Ntp102
Rp103
(dp104
g27
S'none'
p105
sg29
Nsbag2
(g23
g4
Ntp106
Rp107
(dp108
g27
S'none'
p109
sg29
Nsbag2
(g23
g4
Ntp110
Rp111
(dp112
g27
S'none'
p113
sg29
Nsbag2
(g23
g4
Ntp114
Rp115
(dp116
g27
g113
sg29
Nsbag2
(g23
g4
Ntp117
Rp118
(dp119
g27
S'int'
p120
sg29
I2
sbag2
(g23
g4
Ntp121
Rp122
(dp123
g27
S'int'
p124
sg29
I4
sbag2
(g23
g4
Ntp125
Rp126
(dp127
g27
g105
sg29
Nsbag2
(g23
g4
Ntp128
Rp129
(dp130
g27
g109
sg29
Nsbag2
(g23
g4
Ntp131
Rp132
(dp133
g27
g113
sg29
Nsbag2
(g23
g4
Ntp134
Rp135
(dp136
g27
g113
sg29
Nsbag2
(g23
g4
Ntp137
Rp138
(dp139
g27
g100
sg29
S'=cell([0,1],0)'
p140
sbag2
(g23
g4
Ntp141
Rp142
(dp143
g27
g105
sg29
Nsbag2
(g23
g4
Ntp144
Rp145
(dp146
g27
g105
sg29
Nsbag2
(g23
g4
Ntp147
Rp148
(dp149
g27
g109
sg29
Nsbag2
(g23
g4
Ntp150
Rp151
(dp152
g27
g113
sg29
Nsbag2
(g23
g4
Ntp153
Rp154
(dp155
g27
g113
sg29
Nsbag2
(g23
g4
Ntp156
Rp157
(dp158
g27
g100
sg29
S'=cell([0,1],0).flatten()'
p159
sbag2
(g23
g4
Ntp160
Rp161
(dp162
g27
g105
sg29
Nsbag2
(g23
g4
Ntp163
Rp164
(dp165
g27
g105
sg29
Nsbag2
(g23
g4
Ntp166
Rp167
(dp168
g27
g109
sg29
Nsbag2
(g23
g4
Ntp169
Rp170
(dp171
g27
g113
sg29
Nsbag2
(g23
g4
Ntp172
Rp173
(dp174
g27
g113
sg29
Nsbag2
(g23
g4
Ntp175
Rp176
(dp177
g27
g100
sg29
S'=sum(cell([0,1],0).flatten())'
p178
sbag2
(g23
g4
Ntp179
Rp180
(dp181
g27
g105
sg29
Nsbag2
(g23
g4
Ntp182
Rp183
(dp184
g27
g105
sg29
Nsbag2
(g23
g4
Ntp185
Rp186
(dp187
g27
g109
sg29
Nsbag2
(g23
g4
Ntp188
Rp189
(dp190
g27
g113
sg29
Nsbag2
(g23
g4
Ntp191
Rp192
(dp193
g27
g113
sg29
Nsbag2
(g23
g4
Ntp194
Rp195
(dp196
g27
g109
sg29
Nsbag2
(g23
g4
Ntp197
Rp198
(dp199
g27
g109
sg29
Nsbag2
(g23
g4
Ntp200
Rp201
(dp202
g27
g109
sg29
Nsbag2
(g23
g4
Ntp203
Rp204
(dp205
g27
g109
sg29
Nsbag2
(g23
g4
Ntp206
Rp207
(dp208
g27
g113
sg29
Nsbag2
(g23
g4
Ntp209
Rp210
(dp211
g27
g113
sg29
Nsbag2
(g23
g4
Ntp212
Rp213
(dp214
g27
S'none'
p215
sg29
Nsbag2
(g23
g4
Ntp216
Rp217
(dp218
g27
g215
sg29
Nsbag2
(g23
g4
Ntp219
Rp220
(dp221
g27
g215
sg29
Nsbag2
(g23
g4
Ntp222
Rp223
(dp224
g27
g215
sg29
Nsbag2
(g23
g4
Ntp225
Rp226
(dp227
g27
g113
sg29
Nsbag2
(g23
g4
Ntp228
Rp229
(dp230
g27
g113
sg29
Nsbag2
(g23
g4
Ntp231
Rp232
(dp233
g27
S'none'
p234
sg29
Nsbag2
(g23
g4
Ntp235
Rp236
(dp237
g27
g234
sg29
Nsbag2
(g23
g4
Ntp238
Rp239
(dp240
g27
g234
sg29
Nsbag2
(g23
g4
Ntp241
Rp242
(dp243
g27
g234
sg29
Nsbag2
(g23
g4
Ntp244
Rp245
(dp246
g27
g234
sg29
Nsbag2
(g23
g4
Ntp247
Rp248
(dp249
g27
g234
sg29
Nsbatp250
bsbssbs.