(dp0
S'e'
p1
ccopy_reg
_reconstructor
p2
(cpython_spreadsheet.sheet
Sheet
p3
c__builtin__
object
p4
Ntp5
Rp6
(dp7
S'table'
p8
cnumpy.core.multiarray
_reconstruct
p9
(cnumpy
ndarray
p10
(I0
tp11
S'b'
p12
tp13
Rp14
(I1
(I1
I1
tp15
cnumpy
dtype
p16
(S'O8'
p17
I0
I1
tp18
Rp19
(I3
S'|'
p20
NNNI-1
I-1
I63
tp21
bI00
(lp22
g2
(cpython_spreadsheet.sheet
Cell
p23
g4
Ntp24
Rp25
(dp26
S'dtype'
p27
S'none'
p28
sS'v'
p29
Nsbatp30
bsbsS'd'
p31
g2
(g3
g4
Ntp32
Rp33
(dp34
g8
g9
(g10
(I0
tp35
g12
tp36
Rp37
(I1
(I5
I5
tp38
g16
(S'O8'
p39
I0
I1
tp40
Rp41
(I3
S'|'
p42
NNNI-1
I-1
I63
tp43
bI00
(lp44
g2
(g23
g4
Ntp45
Rp46
(dp47
g27
S'int'
p48
sg29
I1
sbag2
(g23
g4
Ntp49
Rp50
(dp51
g27
S'int'
p52
sg29
I2
sbag2
(g23
g4
Ntp53
Rp54
(dp55
g27
g52
sg29
I3
sbag2
(g23
g4
Ntp56
Rp57
(dp58
g27
S'none'
p59
sg29
Nsbag2
(g23
g4
Ntp60
Rp61
(dp62
g27
g59
sg29
Nsbag2
(g23
g4
Ntp63
Rp64
(dp65
g27
S'none'
p66
sg29
Nsbag2
(g23
g4
Ntp67
Rp68
(dp69
g27
S'formula'
p70
sg29
S'=cell(0,[0,1,2])'
p71
sbag2
(g23
g4
Ntp72
Rp73
(dp74
g27
g28
sg29
Nsbag2
(g23
g4
Ntp75
Rp76
(dp77
g27
g59
sg29
Nsbag2
(g23
g4
Ntp78
Rp79
(dp80
g27
g59
sg29
Nsbag2
(g23
g4
Ntp81
Rp82
(dp83
g27
S'none'
p84
sg29
Nsbag2
(g23
g4
Ntp85
Rp86
(dp87
g27
S'formula'
p88
sg29
S'=range(3)'
p89
sbag2
(g23
g4
Ntp90
Rp91
(dp92
g27
g28
sg29
Nsbag2
(g23
g4
Ntp93
Rp94
(dp95
g27
g59
sg29
Nsbag2
(g23
g4
Ntp96
Rp97
(dp98
g27
g59
sg29
Nsbag2
(g23
g4
Ntp99
Rp100
(dp101
g27
g59
sg29
Nsbag2
(g23
g4
Ntp102
Rp103
(dp104
g27
S'none'
p105
sg29
Nsbag2
(g23
g4
Ntp106
Rp107
(dp108
g27
g59
sg29
Nsbag2
(g23
g4
Ntp109
Rp110
(dp111
g27
g59
sg29
Nsbag2
(g23
g4
Ntp112
Rp113
(dp114
g27
g59
sg29
Nsbag2
(g23
g4
Ntp115
Rp116
(dp117
g27
S'str'
p118
sg29
S'None'
p119
sbag2
(g23
g4
Ntp120
Rp121
(dp122
g27
S'formula'
p123
sg29
S'=[x**3 for x in range(4)]'
p124
sbag2
(g23
g4
Ntp125
Rp126
(dp127
g27
S'int'
p128
sg29
I6
sbag2
(g23
g4
Ntp129
Rp130
(dp131
g27
S'none'
p132
sg29
Nsbag2
(g23
g4
Ntp133
Rp134
(dp135
g27
g132
sg29
Nsbatp136
bsbs.