(dp0
S'a'
p1
ccopy_reg
_reconstructor
p2
(cspreadsheet.sheet
Sheet
p3
c__builtin__
object
p4
Ntp5
Rp6
(dp7
S'table'
p8
cnumpy.core.multiarray
_reconstruct
p9
(cnumpy
ndarray
p10
(I0
tp11
S'b'
p12
tp13
Rp14
(I1
(I6
I3
tp15
cnumpy
dtype
p16
(S'O8'
p17
I0
I1
tp18
Rp19
(I3
S'|'
p20
NNNI-1
I-1
I63
tp21
bI00
(lp22
g2
(cspreadsheet.sheet
Cell
p23
g4
Ntp24
Rp25
(dp26
S'dtype'
p27
S'int'
p28
sS'v'
p29
I1
sbag2
(g23
g4
Ntp30
Rp31
(dp32
g27
S'none'
p33
sg29
Nsbag2
(g23
g4
Ntp34
Rp35
(dp36
g27
S'formula'
p37
sg29
S'=cell([0,1],0)'
p38
sbag2
(g23
g4
Ntp39
Rp40
(dp41
g27
g28
sg29
I2
sbag2
(g23
g4
Ntp42
Rp43
(dp44
g27
g33
sg29
Nsbag2
(g23
g4
Ntp45
Rp46
(dp47
g27
S'none'
p48
sg29
Nsbag2
(g23
g4
Ntp49
Rp50
(dp51
g27
g28
sg29
I3
sbag2
(g23
g4
Ntp52
Rp53
(dp54
g27
g33
sg29
Nsbag2
(g23
g4
Ntp55
Rp56
(dp57
g27
g48
sg29
Nsbag2
(g23
g4
Ntp58
Rp59
(dp60
g27
g48
sg29
Nsbag2
(g23
g4
Ntp61
Rp62
(dp63
g27
g48
sg29
Nsbag2
(g23
g4
Ntp64
Rp65
(dp66
g27
g48
sg29
Nsbag2
(g23
g4
Ntp67
Rp68
(dp69
g27
g48
sg29
Nsbag2
(g23
g4
Ntp70
Rp71
(dp72
g27
g48
sg29
Nsbag2
(g23
g4
Ntp73
Rp74
(dp75
g27
g48
sg29
Nsbag2
(g23
g4
Ntp76
Rp77
(dp78
g27
g48
sg29
Nsbag2
(g23
g4
Ntp79
Rp80
(dp81
g27
g48
sg29
Nsbag2
(g23
g4
Ntp82
Rp83
(dp84
g27
g48
sg29
Nsbatp85
bsbsS'b'
p86
g2
(g3
g4
Ntp87
Rp88
(dp89
g8
g9
(g10
(I0
tp90
g12
tp91
Rp92
(I1
(I2
I2
tp93
g16
(S'O8'
p94
I0
I1
tp95
Rp96
(I3
S'|'
p97
NNNI-1
I-1
I63
tp98
bI00
(lp99
g2
(g23
g4
Ntp100
Rp101
(dp102
g27
S'none'
p103
sg29
Nsbag2
(g23
g4
Ntp104
Rp105
(dp106
g27
g103
sg29
Nsbag2
(g23
g4
Ntp107
Rp108
(dp109
g27
g103
sg29
Nsbag2
(g23
g4
Ntp110
Rp111
(dp112
g27
g103
sg29
Nsbatp113
bsbs.